target datalayout = "e-m:e-p270:32:32-p271:32:32-p272:64:64-i64:64-i128:128-f80:128-n8:16:32:64-S128"
target triple = "x86_64-pc-linux-gnu"

%"class.euf::egraph" = type { ptr, %class.svector, %"class.euf::etable", %class.region, %class.scoped_ptr_vector, %class.svector.3, %class.svector.5, %class.ptr_vector.7, ptr, ptr, i32, %class.tmp_app, %class.ptr_vector.7, %class.ref_vector, %class.ref_vector.11, %class.vector.16, %class.ptr_vector.7, i32, i8, ptr, ptr, %"class.euf::justification", i32, %class.svector.18, %class.svector.20, %class.ptr_vector.7, %"struct.euf::egraph::stats", i8, i8, i64, %"class.std::vector", %"class.std::function", %"class.std::function.22", %"class.std::function.24", %"class.std::function.26", %"class.std::function.29" }
%class.svector = type { %class.vector }
%class.vector = type { ptr }
%"class.euf::etable" = type { ptr, i8, %class.ptr_vector, %class.map }
%class.ptr_vector = type { %class.vector.0 }
%class.vector.0 = type { ptr }
%class.map = type { %class.table2map }
%class.table2map = type { %class.core_hashtable }
%class.core_hashtable = type <{ ptr, i32, i32, i32, [4 x i8] }>
%class.region = type { ptr, ptr, ptr, ptr, ptr }
%class.scoped_ptr_vector = type { %class.ptr_vector.1 }
%class.ptr_vector.1 = type { %class.vector.2 }
%class.vector.2 = type { ptr }
%class.svector.3 = type { %class.vector.4 }
%class.vector.4 = type { ptr }
%class.svector.5 = type { %class.vector.6 }
%class.vector.6 = type { ptr }
%class.tmp_app = type { i32, ptr }
%class.ref_vector = type { %class.ref_vector_core }
%class.ref_vector_core = type { %class.ref_manager_wrapper, %class.ptr_vector.9 }
%class.ref_manager_wrapper = type { ptr }
%class.ptr_vector.9 = type { %class.vector.10 }
%class.vector.10 = type { ptr }
%class.ref_vector.11 = type { %class.ref_vector_core.12 }
%class.ref_vector_core.12 = type { %class.ref_manager_wrapper.13, %class.ptr_vector.14 }
%class.ref_manager_wrapper.13 = type { ptr }
%class.ptr_vector.14 = type { %class.vector.15 }
%class.vector.15 = type { ptr }
%class.vector.16 = type { ptr }
%"class.euf::justification" = type { i32, %union.anon, %union.anon.17 }
%union.anon = type { ptr }
%union.anon.17 = type { ptr }
%class.svector.18 = type { %class.vector.19 }
%class.vector.19 = type { ptr }
%class.svector.20 = type { %class.vector.21 }
%class.vector.21 = type { ptr }
%class.ptr_vector.7 = type { %class.vector.8 }
%class.vector.8 = type { ptr }
%"struct.euf::egraph::stats" = type { i32, i32, i32, i32, i32, i32 }
%"class.std::vector" = type { %"struct.std::_Vector_base" }
%"struct.std::_Vector_base" = type { %"struct.std::_Vector_base<std::function<void (euf::enode *, euf::enode *)>, std::allocator<std::function<void (euf::enode *, euf::enode *)>>>::_Vector_impl" }
%"struct.std::_Vector_base<std::function<void (euf::enode *, euf::enode *)>, std::allocator<std::function<void (euf::enode *, euf::enode *)>>>::_Vector_impl" = type { %"struct.std::_Vector_base<std::function<void (euf::enode *, euf::enode *)>, std::allocator<std::function<void (euf::enode *, euf::enode *)>>>::_Vector_impl_data" }
%"struct.std::_Vector_base<std::function<void (euf::enode *, euf::enode *)>, std::allocator<std::function<void (euf::enode *, euf::enode *)>>>::_Vector_impl_data" = type { ptr, ptr, ptr }
%"class.std::function" = type { %"class.std::_Function_base", ptr }
%"class.std::_Function_base" = type { %"union.std::_Any_data", ptr }
%"union.std::_Any_data" = type { %"union.std::_Nocopy_types" }
%"union.std::_Nocopy_types" = type { { i64, i64 } }
%"class.std::function.22" = type { %"class.std::_Function_base", ptr }
%"class.std::function.24" = type { %"class.std::_Function_base", ptr }
%"class.std::function.26" = type { %"class.std::_Function_base", ptr }
%"class.std::function.29" = type { %"class.std::_Function_base", ptr }
%"class.euf::enode" = type { ptr, i8, i8, i8, i8, i8, i8, i8, i8, i8, i32, i32, i32, i32, i32, i32, %class.ptr_vector.7, ptr, ptr, ptr, ptr, %class.id_var_list, %"class.euf::justification", %"class.euf::justification", i32, i8, %class.approx_set, %class.approx_set, [0 x ptr] }
%class.id_var_list = type { i32, ptr }
%class.approx_set = type { %class.approx_set_tpl }
%class.approx_set_tpl = type { i64 }
%"struct.euf::egraph::update_record" = type { i32, ptr, ptr, %union.anon.32 }
%union.anon.32 = type { i64 }

; Function Attrs: mustprogress uwtable
define linkonce_odr hidden noundef nonnull align 8 dereferenceable(8) ptr @_ZN6vectorIN3euf6egraph13update_recordELb0EjE9push_backEOS2_(ptr noundef nonnull align 8 dereferenceable(8) %0, ptr noundef nonnull align 8 dereferenceable(32) %1) #4 comdat align 2 {
  %3 = alloca ptr, align 8
  %4 = alloca ptr, align 8
  store ptr %0, ptr %3, align 8, !tbaa !165
  store ptr %1, ptr %4, align 8, !tbaa !168
  %5 = load ptr, ptr %3, align 8
  %6 = getelementptr inbounds nuw %class.vector.4, ptr %5, i32 0, i32 0
  %7 = load ptr, ptr %6, align 8, !tbaa !167
  %8 = icmp eq ptr %7, null
  br i1 %8, label %19, label %9

9:                                                ; preds = %2
  %10 = getelementptr inbounds nuw %class.vector.4, ptr %5, i32 0, i32 0
  %11 = load ptr, ptr %10, align 8, !tbaa !167
  %12 = getelementptr inbounds i32, ptr %11, i64 -1
  %13 = load i32, ptr %12, align 4, !tbaa !10
  %14 = getelementptr inbounds nuw %class.vector.4, ptr %5, i32 0, i32 0
  %15 = load ptr, ptr %14, align 8, !tbaa !167
  %16 = getelementptr inbounds i32, ptr %15, i64 -2
  %17 = load i32, ptr %16, align 4, !tbaa !10
  %18 = icmp eq i32 %13, %17
  br i1 %18, label %19, label %20

19:                                               ; preds = %9, %2
  call void @_ZN6vectorIN3euf6egraph13update_recordELb0EjE13expand_vectorEv(ptr noundef nonnull align 8 dereferenceable(8) %5)
  br label %20

20:                                               ; preds = %19, %9
  %21 = getelementptr inbounds nuw %class.vector.4, ptr %5, i32 0, i32 0
  %22 = load ptr, ptr %21, align 8, !tbaa !167
  %23 = getelementptr inbounds nuw %class.vector.4, ptr %5, i32 0, i32 0
  %24 = load ptr, ptr %23, align 8, !tbaa !167
  %25 = getelementptr inbounds i32, ptr %24, i64 -1
  %26 = load i32, ptr %25, align 4, !tbaa !10
  %27 = zext i32 %26 to i64
  %28 = getelementptr inbounds nuw %"struct.euf::egraph::update_record", ptr %22, i64 %27
  %29 = load ptr, ptr %4, align 8, !tbaa !168
  call void @llvm.memcpy.p0.p0.i64(ptr align 8 %28, ptr align 8 %29, i64 32, i1 false), !tbaa.struct !169
  %30 = getelementptr inbounds nuw %class.vector.4, ptr %5, i32 0, i32 0
  %31 = load ptr, ptr %30, align 8, !tbaa !167
  %32 = getelementptr inbounds i32, ptr %31, i64 -1
  %33 = load i32, ptr %32, align 4, !tbaa !10
  %34 = add i32 %33, 1
  store i32 %34, ptr %32, align 4, !tbaa !10
  ret ptr %5
}

; Function Attrs: mustprogress nounwind uwtable
define linkonce_odr hidden void @_ZN3euf6egraph13update_recordC2EPNS_5enodeENS1_10toggle_cgcE(ptr noundef nonnull align 8 dereferenceable(32) %0, ptr noundef %1) unnamed_addr #6 comdat align 2 {
  %3 = alloca ptr, align 8
  %4 = alloca ptr, align 8
  store ptr %0, ptr %3, align 8, !tbaa !168
  store ptr %1, ptr %4, align 8, !tbaa !15
  %5 = load ptr, ptr %3, align 8
  %6 = getelementptr inbounds nuw %"struct.euf::egraph::update_record", ptr %5, i32 0, i32 0
  store i32 2, ptr %6, align 8, !tbaa !172
  %7 = getelementptr inbounds nuw %"struct.euf::egraph::update_record", ptr %5, i32 0, i32 1
  %8 = load ptr, ptr %4, align 8, !tbaa !15
  store ptr %8, ptr %7, align 8, !tbaa !174
  %9 = getelementptr inbounds nuw %"struct.euf::egraph::update_record", ptr %5, i32 0, i32 2
  store ptr null, ptr %9, align 8, !tbaa !175
  %10 = getelementptr inbounds nuw %"struct.euf::egraph::update_record", ptr %5, i32 0, i32 3
  store i32 -1, ptr %10, align 8, !tbaa !140
  ret void
}

; Function Attrs: mustprogress nounwind uwtable
define linkonce_odr hidden noundef zeroext i1 @_ZNK3euf5enode11cgc_enabledEv(ptr noundef nonnull align 8 dereferenceable(176) %0) #6 comdat align 2 {
  %2 = alloca ptr, align 8
  store ptr %0, ptr %2, align 8, !tbaa !15
  %3 = load ptr, ptr %2, align 8
  %4 = getelementptr inbounds nuw %"class.euf::enode", ptr %3, i32 0, i32 6
  %5 = load i8, ptr %4, align 1, !tbaa !102, !range !82, !noundef !83
  %6 = trunc i8 %5 to i1
  ret i1 %6
}

; Function Attrs: mustprogress uwtable
define hidden void @_ZN3euf6egraph15set_cgc_enabledEPNS_5enodeEb(ptr noundef nonnull align 8 dereferenceable(536) %0, ptr noundef %1, i1 noundef zeroext %2) #4 align 2 {
  %4 = alloca ptr, align 8
  %5 = alloca ptr, align 8
  %6 = alloca i8, align 1
  %7 = alloca %"struct.euf::egraph::update_record", align 8
  store ptr %0, ptr %4, align 8, !tbaa !3
  store ptr %1, ptr %5, align 8, !tbaa !15
  %8 = zext i1 %2 to i8
  store i8 %8, ptr %6, align 1, !tbaa !104
  %9 = load ptr, ptr %4, align 8
  %10 = load i8, ptr %6, align 1, !tbaa !104, !range !82, !noundef !83
  %11 = trunc i8 %10 to i1
  %12 = zext i1 %11 to i32
  %13 = load ptr, ptr %5, align 8, !tbaa !15
  %14 = call noundef zeroext i1 @_ZNK3euf5enode11cgc_enabledEv(ptr noundef nonnull align 8 dereferenceable(176) %13)
  %15 = zext i1 %14 to i32
  %16 = icmp ne i32 %12, %15
  br i1 %16, label %17, label %22

17:                                               ; preds = %3
  %18 = load ptr, ptr %5, align 8, !tbaa !15
  call void @_ZN3euf6egraph18toggle_cgc_enabledEPNS_5enodeEb(ptr noundef nonnull align 8 dereferenceable(536) %9, ptr noundef %18, i1 noundef zeroext false)
  %19 = getelementptr inbounds nuw %"class.euf::egraph", ptr %9, i32 0, i32 5
  call void @llvm.lifetime.start.p0(i64 32, ptr %7) #3
  %20 = load ptr, ptr %5, align 8, !tbaa !15
  call void @_ZN3euf6egraph13update_recordC2EPNS_5enodeENS1_10toggle_cgcE(ptr noundef nonnull align 8 dereferenceable(32) %7, ptr noundef %20)
  %21 = call noundef nonnull align 8 dereferenceable(8) ptr @_ZN6vectorIN3euf6egraph13update_recordELb0EjE9push_backEOS2_(ptr noundef nonnull align 8 dereferenceable(8) %19, ptr noundef nonnull align 8 dereferenceable(32) %7)
  call void @llvm.lifetime.end.p0(i64 32, ptr %7) #3
  br label %22

22:                                               ; preds = %17, %3
  ret void
}