; Function Attrs: mustprogress uwtable
define hidden void @_ZN3euf6egraph15set_cgc_enabledEPNS_5enodeEb(ptr noundef nonnull align 8 dereferenceable(536) %0, ptr noundef %1, i1 noundef zeroext %2) local_unnamed_addr #3 align 2 {
  %4 = getelementptr inbounds nuw i8, ptr %1, i64 13
  %5 = load i8, ptr %4, align 1, !tbaa !3, !range !109, !noundef !110
  %6 = trunc nuw i8 %5 to i1
  %7 = xor i1 %2, %6
  br i1 %7, label %8, label %27

8:                                                ; preds = %3
  tail call void @_ZN3euf6egraph18toggle_cgc_enabledEPNS_5enodeEb(ptr noundef nonnull align 8 dereferenceable(536) %0, ptr noundef nonnull %1, i1 noundef zeroext false)
  %9 = getelementptr inbounds nuw i8, ptr %0, i64 112
  %10 = load ptr, ptr %9, align 8, !tbaa !121
  %11 = icmp eq ptr %10, null
  br i1 %11, label %18, label %12

12:                                               ; preds = %8
  %13 = getelementptr inbounds i8, ptr %10, i64 -4
  %14 = load i32, ptr %13, align 4, !tbaa !113
  %15 = getelementptr inbounds i8, ptr %10, i64 -8
  %16 = load i32, ptr %15, align 4, !tbaa !113
  %17 = icmp eq i32 %14, %16
  br i1 %17, label %18, label %_ZN6vectorIN3euf6egraph13update_recordELb0EjE9push_backEOS2_.exit

18:                                               ; preds = %12, %8
  tail call void @_ZN6vectorIN3euf6egraph13update_recordELb0EjE13expand_vectorEv(ptr noundef nonnull align 8 dereferenceable(8) %9)
  %.pre.i = load ptr, ptr %9, align 8, !tbaa !121
  %.phi.trans.insert.i = getelementptr inbounds i8, ptr %.pre.i, i64 -4
  %.pre2.i = load i32, ptr %.phi.trans.insert.i, align 4, !tbaa !113
  br label %_ZN6vectorIN3euf6egraph13update_recordELb0EjE9push_backEOS2_.exit

_ZN6vectorIN3euf6egraph13update_recordELb0EjE9push_backEOS2_.exit: ; preds = %12, %18
  %19 = phi i32 [ %.pre2.i, %18 ], [ %14, %12 ]
  %20 = phi ptr [ %.pre.i, %18 ], [ %10, %12 ]
  %21 = zext i32 %19 to i64
  %22 = getelementptr inbounds nuw %"struct.euf::egraph::update_record", ptr %20, i64 %21
  store i32 2, ptr %22, align 8, !tbaa !122
  %.sroa.44.0..sroa_idx = getelementptr inbounds nuw i8, ptr %22, i64 8
  store ptr %1, ptr %.sroa.44.0..sroa_idx, align 8, !tbaa !47
  %.sroa.5.0..sroa_idx = getelementptr inbounds nuw i8, ptr %22, i64 16
  store ptr null, ptr %.sroa.5.0..sroa_idx, align 8, !tbaa !47
  %.sroa.6.0..sroa_idx = getelementptr inbounds nuw i8, ptr %22, i64 24
  store i32 -1, ptr %.sroa.6.0..sroa_idx, align 8
  %23 = load ptr, ptr %9, align 8, !tbaa !121
  %24 = getelementptr inbounds i8, ptr %23, i64 -4
  %25 = load i32, ptr %24, align 4, !tbaa !113
  %26 = add i32 %25, 1
  store i32 %26, ptr %24, align 4, !tbaa !113
  br label %27

27:                                               ; preds = %_ZN6vectorIN3euf6egraph13update_recordELb0EjE9push_backEOS2_.exit, %3
  ret void
}